target datalayout = "e-m:e-p270:32:32-p271:32:32-p272:64:64-i64:64-i128:128-f80:128-n8:16:32:64-S128"
target triple = "x86_64-pc-linux-gnu"

%class.QString = type { ptr }
%class.VarianceShadowMapping = type { %class.ShadowMapping.base, i32, i32, i32, i32, [4 x i8] }
%class.ShadowMapping.base = type <{ %class.DecorateShader, float, i32, i32, i32, i32 }>
%class.DecorateShader = type { ptr, i8, i32, i32, i32 }
%class.ShadowMapping = type <{ %class.DecorateShader, float, i32, i32, i32, i32, [4 x i8] }>
%class.VarianceShadowMappingBlur = type { %class.VarianceShadowMapping.base, i32, i32, i32, i32, i32 }
%class.VarianceShadowMapping.base = type { %class.ShadowMapping.base, i32, i32, i32, i32 }

@.str.6 = private unnamed_addr constant [31 x i8] c"/decorate_shadow/vsmb/depthVSM\00", align 1
@.str.7 = private unnamed_addr constant [32 x i8] c"/decorate_shadow/vsmb/objectVSM\00", align 1
@.str.8 = private unnamed_addr constant [30 x i8] c"/decorate_shadow/vsmb/blurVSM\00", align 1

; Function Attrs: mustprogress uwtable
define linkonce_odr noundef zeroext i1 @_ZN14DecorateShader9initSetupEv(ptr noundef nonnull align 8 dereferenceable(24) %0) #1 comdat align 2 {
  %2 = alloca ptr, align 8
  store ptr %0, ptr %2, align 8
  %3 = load ptr, ptr %2, align 8
  %4 = load ptr, ptr %3, align 8
  %5 = getelementptr inbounds ptr, ptr %4, i64 5
  %6 = load ptr, ptr %5, align 8
  %7 = call noundef zeroext i1 %6(ptr noundef nonnull align 8 dereferenceable(24) %3)
  ret i1 %7
}

; Function Attrs: mustprogress uwtable
define linkonce_odr noundef zeroext i1 @_ZN14DecorateShader8initGlewEv(ptr noundef nonnull align 8 dereferenceable(24) %0) #1 comdat align 2 {
  %2 = alloca ptr, align 8
  store ptr %0, ptr %2, align 8
  %3 = call noundef zeroext i1 @_ZN19GLExtensionsManager34initializeGLextensions_notThrowingEv()
  ret i1 %3
}

; Function Attrs: mustprogress uwtable
define noundef zeroext i1 @_ZN25VarianceShadowMappingBlur4initEv(ptr noundef nonnull align 8 dereferenceable(80) %0) unnamed_addr #1 align 2 personality ptr @__gxx_personality_v0 {
  %2 = alloca i1, align 1
  %3 = alloca ptr, align 8
  %4 = alloca i8, align 1
  %5 = alloca %class.QString, align 8
  %6 = alloca %class.QString, align 8
  %7 = alloca ptr, align 8
  %8 = alloca i32, align 4
  %9 = alloca i8, align 1
  %10 = alloca %class.QString, align 8
  %11 = alloca %class.QString, align 8
  %12 = alloca i8, align 1
  %13 = alloca %class.QString, align 8
  %14 = alloca %class.QString, align 8
  store ptr %0, ptr %3, align 8
  %15 = load ptr, ptr %3, align 8
  %16 = call noundef zeroext i1 @_ZN14DecorateShader8initGlewEv(ptr noundef nonnull align 8 dereferenceable(24) %15)
  br i1 %16, label %17, label %19

17:                                               ; preds = %1
  %18 = call noundef zeroext i1 @_ZN14DecorateShader9initSetupEv(ptr noundef nonnull align 8 dereferenceable(24) %15)
  br i1 %18, label %20, label %19

19:                                               ; preds = %17, %1
  store i1 false, ptr %2, align 1
  br label %79

20:                                               ; preds = %17
  %21 = getelementptr inbounds %class.VarianceShadowMapping, ptr %15, i32 0, i32 2
  %22 = getelementptr inbounds %class.VarianceShadowMapping, ptr %15, i32 0, i32 3
  %23 = getelementptr inbounds %class.VarianceShadowMapping, ptr %15, i32 0, i32 4
  call void @_ZN7meshlab18defaultShadersPathEv(ptr dead_on_unwind writable sret(%class.QString) align 8 %6)
  invoke void @_ZplRK7QStringPKc(ptr dead_on_unwind writable sret(%class.QString) align 8 %5, ptr noundef nonnull align 8 dereferenceable(8) %6, ptr noundef @.str.6)
          to label %24 unwind label %51

24:                                               ; preds = %20
  %25 = invoke noundef zeroext i1 @_ZN14DecorateShader14compileAndLinkERjS0_S0_7QString(ptr noundef nonnull align 8 dereferenceable(24) %15, ptr noundef nonnull align 4 dereferenceable(4) %21, ptr noundef nonnull align 4 dereferenceable(4) %22, ptr noundef nonnull align 4 dereferenceable(4) %23, ptr noundef %5)
          to label %26 unwind label %55

26:                                               ; preds = %24
  call void @_ZN7QStringD2Ev(ptr noundef nonnull align 8 dereferenceable(8) %5) #5
  call void @_ZN7QStringD2Ev(ptr noundef nonnull align 8 dereferenceable(8) %6) #5
  %27 = zext i1 %25 to i8
  store i8 %27, ptr %4, align 1
  %28 = getelementptr inbounds %class.ShadowMapping, ptr %15, i32 0, i32 3
  %29 = getelementptr inbounds %class.ShadowMapping, ptr %15, i32 0, i32 4
  %30 = getelementptr inbounds %class.ShadowMapping, ptr %15, i32 0, i32 5
  call void @_ZN7meshlab18defaultShadersPathEv(ptr dead_on_unwind writable sret(%class.QString) align 8 %11)
  invoke void @_ZplRK7QStringPKc(ptr dead_on_unwind writable sret(%class.QString) align 8 %10, ptr noundef nonnull align 8 dereferenceable(8) %11, ptr noundef @.str.7)
          to label %31 unwind label %60

31:                                               ; preds = %26
  %32 = invoke noundef zeroext i1 @_ZN14DecorateShader14compileAndLinkERjS0_S0_7QString(ptr noundef nonnull align 8 dereferenceable(24) %15, ptr noundef nonnull align 4 dereferenceable(4) %28, ptr noundef nonnull align 4 dereferenceable(4) %29, ptr noundef nonnull align 4 dereferenceable(4) %30, ptr noundef %10)
          to label %33 unwind label %64

33:                                               ; preds = %31
  call void @_ZN7QStringD2Ev(ptr noundef nonnull align 8 dereferenceable(8) %10) #5
  call void @_ZN7QStringD2Ev(ptr noundef nonnull align 8 dereferenceable(8) %11) #5
  %34 = zext i1 %32 to i8
  store i8 %34, ptr %9, align 1
  %35 = getelementptr inbounds %class.VarianceShadowMappingBlur, ptr %15, i32 0, i32 3
  %36 = getelementptr inbounds %class.VarianceShadowMappingBlur, ptr %15, i32 0, i32 4
  %37 = getelementptr inbounds %class.VarianceShadowMappingBlur, ptr %15, i32 0, i32 5
  call void @_ZN7meshlab18defaultShadersPathEv(ptr dead_on_unwind writable sret(%class.QString) align 8 %14)
  invoke void @_ZplRK7QStringPKc(ptr dead_on_unwind writable sret(%class.QString) align 8 %13, ptr noundef nonnull align 8 dereferenceable(8) %14, ptr noundef @.str.8)
          to label %38 unwind label %69

38:                                               ; preds = %33
  %39 = invoke noundef zeroext i1 @_ZN14DecorateShader14compileAndLinkERjS0_S0_7QString(ptr noundef nonnull align 8 dereferenceable(24) %15, ptr noundef nonnull align 4 dereferenceable(4) %35, ptr noundef nonnull align 4 dereferenceable(4) %36, ptr noundef nonnull align 4 dereferenceable(4) %37, ptr noundef %13)
          to label %40 unwind label %73

40:                                               ; preds = %38
  call void @_ZN7QStringD2Ev(ptr noundef nonnull align 8 dereferenceable(8) %13) #5
  call void @_ZN7QStringD2Ev(ptr noundef nonnull align 8 dereferenceable(8) %14) #5
  %41 = zext i1 %39 to i8
  store i8 %41, ptr %12, align 1
  %42 = load i8, ptr %4, align 1
  %43 = trunc i8 %42 to i1
  br i1 %43, label %44, label %50

44:                                               ; preds = %40
  %45 = load i8, ptr %9, align 1
  %46 = trunc i8 %45 to i1
  br i1 %46, label %47, label %50

47:                                               ; preds = %44
  %48 = load i8, ptr %12, align 1
  %49 = trunc i8 %48 to i1
  br i1 %49, label %78, label %50

50:                                               ; preds = %47, %44, %40
  store i1 false, ptr %2, align 1
  br label %79

51:                                               ; preds = %20
  %52 = landingpad { ptr, i32 }
          cleanup
  %53 = extractvalue { ptr, i32 } %52, 0
  store ptr %53, ptr %7, align 8
  %54 = extractvalue { ptr, i32 } %52, 1
  store i32 %54, ptr %8, align 4
  br label %59

55:                                               ; preds = %24
  %56 = landingpad { ptr, i32 }
          cleanup
  %57 = extractvalue { ptr, i32 } %56, 0
  store ptr %57, ptr %7, align 8
  %58 = extractvalue { ptr, i32 } %56, 1
  store i32 %58, ptr %8, align 4
  call void @_ZN7QStringD2Ev(ptr noundef nonnull align 8 dereferenceable(8) %5) #5
  br label %59

59:                                               ; preds = %55, %51
  call void @_ZN7QStringD2Ev(ptr noundef nonnull align 8 dereferenceable(8) %6) #5
  br label %81

60:                                               ; preds = %26
  %61 = landingpad { ptr, i32 }
          cleanup
  %62 = extractvalue { ptr, i32 } %61, 0
  store ptr %62, ptr %7, align 8
  %63 = extractvalue { ptr, i32 } %61, 1
  store i32 %63, ptr %8, align 4
  br label %68

64:                                               ; preds = %31
  %65 = landingpad { ptr, i32 }
          cleanup
  %66 = extractvalue { ptr, i32 } %65, 0
  store ptr %66, ptr %7, align 8
  %67 = extractvalue { ptr, i32 } %65, 1
  store i32 %67, ptr %8, align 4
  call void @_ZN7QStringD2Ev(ptr noundef nonnull align 8 dereferenceable(8) %10) #5
  br label %68

68:                                               ; preds = %64, %60
  call void @_ZN7QStringD2Ev(ptr noundef nonnull align 8 dereferenceable(8) %11) #5
  br label %81

69:                                               ; preds = %33
  %70 = landingpad { ptr, i32 }
          cleanup
  %71 = extractvalue { ptr, i32 } %70, 0
  store ptr %71, ptr %7, align 8
  %72 = extractvalue { ptr, i32 } %70, 1
  store i32 %72, ptr %8, align 4
  br label %77

73:                                               ; preds = %38
  %74 = landingpad { ptr, i32 }
          cleanup
  %75 = extractvalue { ptr, i32 } %74, 0
  store ptr %75, ptr %7, align 8
  %76 = extractvalue { ptr, i32 } %74, 1
  store i32 %76, ptr %8, align 4
  call void @_ZN7QStringD2Ev(ptr noundef nonnull align 8 dereferenceable(8) %13) #5
  br label %77

77:                                               ; preds = %73, %69
  call void @_ZN7QStringD2Ev(ptr noundef nonnull align 8 dereferenceable(8) %14) #5
  br label %81

78:                                               ; preds = %47
  store i1 true, ptr %2, align 1
  br label %79

79:                                               ; preds = %78, %50, %19
  %80 = load i1, ptr %2, align 1
  ret i1 %80

81:                                               ; preds = %77, %68, %59
  %82 = load ptr, ptr %7, align 8
  %83 = load i32, ptr %8, align 4
  %84 = insertvalue { ptr, i32 } poison, ptr %82, 0
  %85 = insertvalue { ptr, i32 } %84, i32 %83, 1
  resume { ptr, i32 } %85
}