; Function Attrs: mustprogress uwtable
define noundef zeroext i1 @_ZN25VarianceShadowMappingBlur4initEv(ptr noundef nonnull align 8 dereferenceable(80) %0) unnamed_addr #1 align 2 personality ptr @__gxx_personality_v0 {
  %2 = alloca %class.QString, align 8
  %3 = alloca %class.QString, align 8
  %4 = alloca %class.QString, align 8
  %5 = alloca %class.QString, align 8
  %6 = alloca %class.QString, align 8
  %7 = alloca %class.QString, align 8
  %8 = tail call noundef zeroext i1 @_ZN19GLExtensionsManager34initializeGLextensions_notThrowingEv()
  br i1 %8, label %9, label %69

9:                                                ; preds = %1
  %10 = load ptr, ptr %0, align 8
  %11 = getelementptr inbounds i8, ptr %10, i64 40
  %12 = load ptr, ptr %11, align 8
  %13 = tail call noundef zeroext i1 %12(ptr noundef nonnull align 8 dereferenceable(24) %0)
  br i1 %13, label %14, label %69

14:                                               ; preds = %9
  call void @_ZN7meshlab18defaultShadersPathEv(ptr dead_on_unwind nonnull writable sret(%class.QString) align 8 %3)
  invoke void @_ZplRK7QStringPKc(ptr dead_on_unwind nonnull writable sret(%class.QString) align 8 %2, ptr noundef nonnull align 8 dereferenceable(8) %3, ptr noundef nonnull @.str.6)
          to label %15 unwind label %57

15:                                               ; preds = %14
  %16 = getelementptr inbounds i8, ptr %0, i64 56
  %17 = getelementptr inbounds i8, ptr %0, i64 52
  %18 = getelementptr inbounds i8, ptr %0, i64 48
  %19 = invoke noundef zeroext i1 @_ZN14DecorateShader14compileAndLinkERjS0_S0_7QString(ptr noundef nonnull align 8 dereferenceable(24) %0, ptr noundef nonnull align 4 dereferenceable(4) %18, ptr noundef nonnull align 4 dereferenceable(4) %17, ptr noundef nonnull align 4 dereferenceable(4) %16, ptr noundef nonnull %2)
          to label %20 unwind label %59

20:                                               ; preds = %15
  %21 = load ptr, ptr %2, align 8
  %22 = load atomic i32, ptr %21 monotonic, align 4
  switch i32 %22, label %_ZN9QtPrivate8RefCount5derefEv.exit.i [
    i32 0, label %_ZN9QtPrivate8RefCount5derefEv.exit.thread2.i
    i32 -1, label %_ZN7QStringD2Ev.exit
  ]

_ZN9QtPrivate8RefCount5derefEv.exit.i:            ; preds = %20
  %23 = atomicrmw sub ptr %21, i32 1 seq_cst, align 4
  %.not.i = icmp eq i32 %23, 1
  br i1 %.not.i, label %_ZN9QtPrivate8RefCount5derefEv.exit._ZN9QtPrivate8RefCount5derefEv.exit.thread2_crit_edge.i, label %_ZN7QStringD2Ev.exit

_ZN9QtPrivate8RefCount5derefEv.exit._ZN9QtPrivate8RefCount5derefEv.exit.thread2_crit_edge.i: ; preds = %_ZN9QtPrivate8RefCount5derefEv.exit.i
  %.pre.i = load ptr, ptr %2, align 8
  br label %_ZN9QtPrivate8RefCount5derefEv.exit.thread2.i

_ZN9QtPrivate8RefCount5derefEv.exit.thread2.i:    ; preds = %_ZN9QtPrivate8RefCount5derefEv.exit._ZN9QtPrivate8RefCount5derefEv.exit.thread2_crit_edge.i, %20
  %24 = phi ptr [ %.pre.i, %_ZN9QtPrivate8RefCount5derefEv.exit._ZN9QtPrivate8RefCount5derefEv.exit.thread2_crit_edge.i ], [ %21, %20 ]
  call void @_ZN10QArrayData10deallocateEPS_mm(ptr noundef %24, i64 noundef 2, i64 noundef 8) #20
  br label %_ZN7QStringD2Ev.exit

_ZN7QStringD2Ev.exit:                             ; preds = %20, %_ZN9QtPrivate8RefCount5derefEv.exit.i, %_ZN9QtPrivate8RefCount5derefEv.exit.thread2.i
  %25 = load ptr, ptr %3, align 8
  %26 = load atomic i32, ptr %25 monotonic, align 4
  switch i32 %26, label %_ZN9QtPrivate8RefCount5derefEv.exit.i21 [
    i32 0, label %_ZN9QtPrivate8RefCount5derefEv.exit.thread2.i20
    i32 -1, label %_ZN7QStringD2Ev.exit25
  ]

_ZN9QtPrivate8RefCount5derefEv.exit.i21:          ; preds = %_ZN7QStringD2Ev.exit
  %27 = atomicrmw sub ptr %25, i32 1 seq_cst, align 4
  %.not.i22 = icmp eq i32 %27, 1
  br i1 %.not.i22, label %_ZN9QtPrivate8RefCount5derefEv.exit._ZN9QtPrivate8RefCount5derefEv.exit.thread2_crit_edge.i23, label %_ZN7QStringD2Ev.exit25

_ZN9QtPrivate8RefCount5derefEv.exit._ZN9QtPrivate8RefCount5derefEv.exit.thread2_crit_edge.i23: ; preds = %_ZN9QtPrivate8RefCount5derefEv.exit.i21
  %.pre.i24 = load ptr, ptr %3, align 8
  br label %_ZN9QtPrivate8RefCount5derefEv.exit.thread2.i20

_ZN9QtPrivate8RefCount5derefEv.exit.thread2.i20:  ; preds = %_ZN9QtPrivate8RefCount5derefEv.exit._ZN9QtPrivate8RefCount5derefEv.exit.thread2_crit_edge.i23, %_ZN7QStringD2Ev.exit
  %28 = phi ptr [ %.pre.i24, %_ZN9QtPrivate8RefCount5derefEv.exit._ZN9QtPrivate8RefCount5derefEv.exit.thread2_crit_edge.i23 ], [ %25, %_ZN7QStringD2Ev.exit ]
  call void @_ZN10QArrayData10deallocateEPS_mm(ptr noundef %28, i64 noundef 2, i64 noundef 8) #20
  br label %_ZN7QStringD2Ev.exit25

_ZN7QStringD2Ev.exit25:                           ; preds = %_ZN7QStringD2Ev.exit, %_ZN9QtPrivate8RefCount5derefEv.exit.i21, %_ZN9QtPrivate8RefCount5derefEv.exit.thread2.i20
  call void @_ZN7meshlab18defaultShadersPathEv(ptr dead_on_unwind nonnull writable sret(%class.QString) align 8 %5)
  invoke void @_ZplRK7QStringPKc(ptr dead_on_unwind nonnull writable sret(%class.QString) align 8 %4, ptr noundef nonnull align 8 dereferenceable(8) %5, ptr noundef nonnull @.str.7)
          to label %29 unwind label %61

29:                                               ; preds = %_ZN7QStringD2Ev.exit25
  %30 = getelementptr inbounds i8, ptr %0, i64 40
  %31 = getelementptr inbounds i8, ptr %0, i64 36
  %32 = getelementptr inbounds i8, ptr %0, i64 32
  %33 = invoke noundef zeroext i1 @_ZN14DecorateShader14compileAndLinkERjS0_S0_7QString(ptr noundef nonnull align 8 dereferenceable(24) %0, ptr noundef nonnull align 4 dereferenceable(4) %32, ptr noundef nonnull align 4 dereferenceable(4) %31, ptr noundef nonnull align 4 dereferenceable(4) %30, ptr noundef nonnull %4)
          to label %34 unwind label %63

34:                                               ; preds = %29
  %35 = load ptr, ptr %4, align 8
  %36 = load atomic i32, ptr %35 monotonic, align 4
  switch i32 %36, label %_ZN9QtPrivate8RefCount5derefEv.exit.i27 [
    i32 0, label %_ZN9QtPrivate8RefCount5derefEv.exit.thread2.i26
    i32 -1, label %_ZN7QStringD2Ev.exit31
  ]

_ZN9QtPrivate8RefCount5derefEv.exit.i27:          ; preds = %34
  %37 = atomicrmw sub ptr %35, i32 1 seq_cst, align 4
  %.not.i28 = icmp eq i32 %37, 1
  br i1 %.not.i28, label %_ZN9QtPrivate8RefCount5derefEv.exit._ZN9QtPrivate8RefCount5derefEv.exit.thread2_crit_edge.i29, label %_ZN7QStringD2Ev.exit31

_ZN9QtPrivate8RefCount5derefEv.exit._ZN9QtPrivate8RefCount5derefEv.exit.thread2_crit_edge.i29: ; preds = %_ZN9QtPrivate8RefCount5derefEv.exit.i27
  %.pre.i30 = load ptr, ptr %4, align 8
  br label %_ZN9QtPrivate8RefCount5derefEv.exit.thread2.i26

_ZN9QtPrivate8RefCount5derefEv.exit.thread2.i26:  ; preds = %_ZN9QtPrivate8RefCount5derefEv.exit._ZN9QtPrivate8RefCount5derefEv.exit.thread2_crit_edge.i29, %34
  %38 = phi ptr [ %.pre.i30, %_ZN9QtPrivate8RefCount5derefEv.exit._ZN9QtPrivate8RefCount5derefEv.exit.thread2_crit_edge.i29 ], [ %35, %34 ]
  call void @_ZN10QArrayData10deallocateEPS_mm(ptr noundef %38, i64 noundef 2, i64 noundef 8) #20
  br label %_ZN7QStringD2Ev.exit31

_ZN7QStringD2Ev.exit31:                           ; preds = %34, %_ZN9QtPrivate8RefCount5derefEv.exit.i27, %_ZN9QtPrivate8RefCount5derefEv.exit.thread2.i26
  %39 = load ptr, ptr %5, align 8
  %40 = load atomic i32, ptr %39 monotonic, align 4
  switch i32 %40, label %_ZN9QtPrivate8RefCount5derefEv.exit.i33 [
    i32 0, label %_ZN9QtPrivate8RefCount5derefEv.exit.thread2.i32
    i32 -1, label %_ZN7QStringD2Ev.exit37
  ]

_ZN9QtPrivate8RefCount5derefEv.exit.i33:          ; preds = %_ZN7QStringD2Ev.exit31
  %41 = atomicrmw sub ptr %39, i32 1 seq_cst, align 4
  %.not.i34 = icmp eq i32 %41, 1
  br i1 %.not.i34, label %_ZN9QtPrivate8RefCount5derefEv.exit._ZN9QtPrivate8RefCount5derefEv.exit.thread2_crit_edge.i35, label %_ZN7QStringD2Ev.exit37

_ZN9QtPrivate8RefCount5derefEv.exit._ZN9QtPrivate8RefCount5derefEv.exit.thread2_crit_edge.i35: ; preds = %_ZN9QtPrivate8RefCount5derefEv.exit.i33
  %.pre.i36 = load ptr, ptr %5, align 8
  br label %_ZN9QtPrivate8RefCount5derefEv.exit.thread2.i32

_ZN9QtPrivate8RefCount5derefEv.exit.thread2.i32:  ; preds = %_ZN9QtPrivate8RefCount5derefEv.exit._ZN9QtPrivate8RefCount5derefEv.exit.thread2_crit_edge.i35, %_ZN7QStringD2Ev.exit31
  %42 = phi ptr [ %.pre.i36, %_ZN9QtPrivate8RefCount5derefEv.exit._ZN9QtPrivate8RefCount5derefEv.exit.thread2_crit_edge.i35 ], [ %39, %_ZN7QStringD2Ev.exit31 ]
  call void @_ZN10QArrayData10deallocateEPS_mm(ptr noundef %42, i64 noundef 2, i64 noundef 8) #20
  br label %_ZN7QStringD2Ev.exit37

_ZN7QStringD2Ev.exit37:                           ; preds = %_ZN7QStringD2Ev.exit31, %_ZN9QtPrivate8RefCount5derefEv.exit.i33, %_ZN9QtPrivate8RefCount5derefEv.exit.thread2.i32
  call void @_ZN7meshlab18defaultShadersPathEv(ptr dead_on_unwind nonnull writable sret(%class.QString) align 8 %7)
  invoke void @_ZplRK7QStringPKc(ptr dead_on_unwind nonnull writable sret(%class.QString) align 8 %6, ptr noundef nonnull align 8 dereferenceable(8) %7, ptr noundef nonnull @.str.8)
          to label %43 unwind label %65

43:                                               ; preds = %_ZN7QStringD2Ev.exit37
  %44 = getelementptr inbounds i8, ptr %0, i64 76
  %45 = getelementptr inbounds i8, ptr %0, i64 72
  %46 = getelementptr inbounds i8, ptr %0, i64 68
  %47 = invoke noundef zeroext i1 @_ZN14DecorateShader14compileAndLinkERjS0_S0_7QString(ptr noundef nonnull align 8 dereferenceable(24) %0, ptr noundef nonnull align 4 dereferenceable(4) %46, ptr noundef nonnull align 4 dereferenceable(4) %45, ptr noundef nonnull align 4 dereferenceable(4) %44, ptr noundef nonnull %6)
          to label %48 unwind label %67

48:                                               ; preds = %43
  %49 = load ptr, ptr %6, align 8
  %50 = load atomic i32, ptr %49 monotonic, align 4
  switch i32 %50, label %_ZN9QtPrivate8RefCount5derefEv.exit.i39 [
    i32 0, label %_ZN9QtPrivate8RefCount5derefEv.exit.thread2.i38
    i32 -1, label %_ZN7QStringD2Ev.exit43
  ]

_ZN9QtPrivate8RefCount5derefEv.exit.i39:          ; preds = %48
  %51 = atomicrmw sub ptr %49, i32 1 seq_cst, align 4
  %.not.i40 = icmp eq i32 %51, 1
  br i1 %.not.i40, label %_ZN9QtPrivate8RefCount5derefEv.exit._ZN9QtPrivate8RefCount5derefEv.exit.thread2_crit_edge.i41, label %_ZN7QStringD2Ev.exit43

_ZN9QtPrivate8RefCount5derefEv.exit._ZN9QtPrivate8RefCount5derefEv.exit.thread2_crit_edge.i41: ; preds = %_ZN9QtPrivate8RefCount5derefEv.exit.i39
  %.pre.i42 = load ptr, ptr %6, align 8
  br label %_ZN9QtPrivate8RefCount5derefEv.exit.thread2.i38

_ZN9QtPrivate8RefCount5derefEv.exit.thread2.i38:  ; preds = %_ZN9QtPrivate8RefCount5derefEv.exit._ZN9QtPrivate8RefCount5derefEv.exit.thread2_crit_edge.i41, %48
  %52 = phi ptr [ %.pre.i42, %_ZN9QtPrivate8RefCount5derefEv.exit._ZN9QtPrivate8RefCount5derefEv.exit.thread2_crit_edge.i41 ], [ %49, %48 ]
  call void @_ZN10QArrayData10deallocateEPS_mm(ptr noundef %52, i64 noundef 2, i64 noundef 8) #20
  br label %_ZN7QStringD2Ev.exit43

_ZN7QStringD2Ev.exit43:                           ; preds = %48, %_ZN9QtPrivate8RefCount5derefEv.exit.i39, %_ZN9QtPrivate8RefCount5derefEv.exit.thread2.i38
  %53 = load ptr, ptr %7, align 8
  %54 = load atomic i32, ptr %53 monotonic, align 4
  switch i32 %54, label %_ZN9QtPrivate8RefCount5derefEv.exit.i45 [
    i32 0, label %_ZN9QtPrivate8RefCount5derefEv.exit.thread2.i44
    i32 -1, label %_ZN7QStringD2Ev.exit49
  ]

_ZN9QtPrivate8RefCount5derefEv.exit.i45:          ; preds = %_ZN7QStringD2Ev.exit43
  %55 = atomicrmw sub ptr %53, i32 1 seq_cst, align 4
  %.not.i46 = icmp eq i32 %55, 1
  br i1 %.not.i46, label %_ZN9QtPrivate8RefCount5derefEv.exit._ZN9QtPrivate8RefCount5derefEv.exit.thread2_crit_edge.i47, label %_ZN7QStringD2Ev.exit49

_ZN9QtPrivate8RefCount5derefEv.exit._ZN9QtPrivate8RefCount5derefEv.exit.thread2_crit_edge.i47: ; preds = %_ZN9QtPrivate8RefCount5derefEv.exit.i45
  %.pre.i48 = load ptr, ptr %7, align 8
  br label %_ZN9QtPrivate8RefCount5derefEv.exit.thread2.i44

_ZN9QtPrivate8RefCount5derefEv.exit.thread2.i44:  ; preds = %_ZN9QtPrivate8RefCount5derefEv.exit._ZN9QtPrivate8RefCount5derefEv.exit.thread2_crit_edge.i47, %_ZN7QStringD2Ev.exit43
  %56 = phi ptr [ %.pre.i48, %_ZN9QtPrivate8RefCount5derefEv.exit._ZN9QtPrivate8RefCount5derefEv.exit.thread2_crit_edge.i47 ], [ %53, %_ZN7QStringD2Ev.exit43 ]
  call void @_ZN10QArrayData10deallocateEPS_mm(ptr noundef %56, i64 noundef 2, i64 noundef 8) #20
  br label %_ZN7QStringD2Ev.exit49

_ZN7QStringD2Ev.exit49:                           ; preds = %_ZN7QStringD2Ev.exit43, %_ZN9QtPrivate8RefCount5derefEv.exit.i45, %_ZN9QtPrivate8RefCount5derefEv.exit.thread2.i44
  %brmerge.demorgan = and i1 %19, %33
  %brmerge19.demorgan = and i1 %brmerge.demorgan, %47
  br label %69

57:                                               ; preds = %14
  %58 = landingpad { ptr, i32 }
          cleanup
  br label %70

59:                                               ; preds = %15
  %60 = landingpad { ptr, i32 }
          cleanup
  call void @_ZN7QStringD2Ev(ptr noundef nonnull align 8 dereferenceable(8) %2) #20
  br label %70

61:                                               ; preds = %_ZN7QStringD2Ev.exit25
  %62 = landingpad { ptr, i32 }
          cleanup
  br label %70

63:                                               ; preds = %29
  %64 = landingpad { ptr, i32 }
          cleanup
  call void @_ZN7QStringD2Ev(ptr noundef nonnull align 8 dereferenceable(8) %4) #20
  br label %70

65:                                               ; preds = %_ZN7QStringD2Ev.exit37
  %66 = landingpad { ptr, i32 }
          cleanup
  br label %70

67:                                               ; preds = %43
  %68 = landingpad { ptr, i32 }
          cleanup
  call void @_ZN7QStringD2Ev(ptr noundef nonnull align 8 dereferenceable(8) %6) #20
  br label %70

69:                                               ; preds = %_ZN7QStringD2Ev.exit49, %1, %9
  %.0 = phi i1 [ false, %9 ], [ false, %1 ], [ %brmerge19.demorgan, %_ZN7QStringD2Ev.exit49 ]
  ret i1 %.0

70:                                               ; preds = %65, %67, %61, %63, %57, %59
  %.sink = phi ptr [ %3, %59 ], [ %3, %57 ], [ %5, %63 ], [ %5, %61 ], [ %7, %67 ], [ %7, %65 ]
  %.pn14.pn = phi { ptr, i32 } [ %60, %59 ], [ %58, %57 ], [ %64, %63 ], [ %62, %61 ], [ %68, %67 ], [ %66, %65 ]
  call void @_ZN7QStringD2Ev(ptr noundef nonnull align 8 dereferenceable(8) %.sink) #20
  resume { ptr, i32 } %.pn14.pn
}